target datalayout = "e-m:e-p270:32:32-p271:32:32-p272:64:64-i64:64-i128:128-f80:128-n8:16:32:64-S128"
target triple = "x86_64-pc-linux-gnu"

@c_color = global [106 x [106 x i8]] zeroinitializer, align 16

; Function Attrs: nounwind uwtable
define i32 @stbhw__match(i32 noundef %0, i32 noundef %1) #0 {
  %3 = alloca i32, align 4
  %4 = alloca i32, align 4
  store i32 %0, ptr %3, align 4, !tbaa !10
  store i32 %1, ptr %4, align 4, !tbaa !10
  %5 = load i32, ptr %4, align 4, !tbaa !10
  %6 = sext i32 %5 to i64
  %7 = getelementptr inbounds [106 x [106 x i8]], ptr @c_color, i64 0, i64 %6
  %8 = load i32, ptr %3, align 4, !tbaa !10
  %9 = sext i32 %8 to i64
  %10 = getelementptr inbounds [106 x i8], ptr %7, i64 0, i64 %9
  %11 = load i8, ptr %10, align 1, !tbaa !64
  %12 = sext i8 %11 to i32
  %13 = load i32, ptr %4, align 4, !tbaa !10
  %14 = add nsw i32 %13, 1
  %15 = sext i32 %14 to i64
  %16 = getelementptr inbounds [106 x [106 x i8]], ptr @c_color, i64 0, i64 %15
  %17 = load i32, ptr %3, align 4, !tbaa !10
  %18 = add nsw i32 %17, 1
  %19 = sext i32 %18 to i64
  %20 = getelementptr inbounds [106 x i8], ptr %16, i64 0, i64 %19
  %21 = load i8, ptr %20, align 1, !tbaa !64
  %22 = sext i8 %21 to i32
  %23 = icmp eq i32 %12, %22
  %24 = zext i1 %23 to i32
  ret i32 %24
}