; Function Attrs: mustprogress nofree norecurse nosync nounwind willreturn memory(read, argmem: none, inaccessiblemem: none) uwtable
define range(i32 0, 2) i32 @stbhw__match(i32 noundef %0, i32 noundef %1) local_unnamed_addr #8 {
  %3 = sext i32 %1 to i64
  %4 = sext i32 %0 to i64
  %5 = getelementptr inbounds [106 x [106 x i8]], ptr @c_color, i64 0, i64 %3, i64 %4
  %6 = load i8, ptr %5, align 1, !tbaa !58
  %7 = add nsw i32 %1, 1
  %8 = sext i32 %7 to i64
  %9 = add nsw i32 %0, 1
  %10 = sext i32 %9 to i64
  %11 = getelementptr inbounds [106 x [106 x i8]], ptr @c_color, i64 0, i64 %8, i64 %10
  %12 = load i8, ptr %11, align 1, !tbaa !58
  %13 = icmp eq i8 %6, %12
  %14 = zext i1 %13 to i32
  ret i32 %14
}